(dp0
S'_AgentService:AgentInfo'
p1
(dp2
S'com.plexapp.agents.fanarttv'
p3
(lp4
(dp5
S'media_types'
p6
(lp7
S'Movie'
p8
asS'accepts_from'
p9
NsS'fallback_agent'
p10
NsS'contributes_to'
p11
(lp12
S'com.plexapp.agents.imdb'
p13
aS'com.plexapp.agents.themoviedb'
p14
asS'has_attribution'
p15
I01
sS'languages'
p16
(lp17
S'xn'
p18
asS'persist_stored_files'
p19
I01
sS'version'
p20
I0
sS'primary_provider'
p21
I00
sS'prefs'
p22
I01
sS'name'
p23
S'Fanart.tv'
p24
sa(dp25
S'media_types'
p26
(lp27
S'TV_Show'
p28
asS'accepts_from'
p29
NsS'fallback_agent'
p30
NsS'contributes_to'
p31
(lp32
S'com.plexapp.agents.thetvdb'
p33
aS'com.plexapp.agents.themoviedb'
p34
asg15
I01
sS'languages'
p35
(lp36
S'xn'
p37
asS'persist_stored_files'
p38
I01
sS'version'
p39
I0
sS'primary_provider'
p40
I00
sS'prefs'
p41
I01
sS'name'
p42
S'Fanart.tv'
p43
sa(dp44
S'media_types'
p45
(lp46
S'Artist'
p47
asS'accepts_from'
p48
NsS'fallback_agent'
p49
NsS'contributes_to'
p50
(lp51
S'com.plexapp.agents.lastfm'
p52
asg15
I01
sS'languages'
p53
(lp54
S'xn'
p55
asS'persist_stored_files'
p56
I01
sS'version'
p57
I0
sS'primary_provider'
p58
I00
sS'prefs'
p59
I01
sS'name'
p60
S'Fanart.tv'
p61
sa(dp62
S'media_types'
p63
(lp64
S'Album'
p65
asS'accepts_from'
p66
NsS'fallback_agent'
p67
NsS'contributes_to'
p68
(lp69
S'com.plexapp.agents.lastfm'
p70
asg15
I01
sS'languages'
p71
(lp72
S'xn'
p73
asS'persist_stored_files'
p74
I01
sS'version'
p75
I0
sS'primary_provider'
p76
I00
sS'prefs'
p77
I01
sS'name'
p78
S'Fanart.tv'
p79
sasS'com.plexapp.agents.none'
p80
(lp81
(dp82
S'media_types'
p83
(lp84
S'Movie'
p85
asS'accepts_from'
p86
NsS'fallback_agent'
p87
NsS'contributes_to'
p88
Nsg15
I00
sS'languages'
p89
(lp90
S'xn'
p91
asS'persist_stored_files'
p92
I01
sS'version'
p93
I0
sS'primary_provider'
p94
I01
sS'prefs'
p95
I00
sS'name'
p96
S'Personal Media'
p97
sa(dp98
S'media_types'
p99
(lp100
S'TV_Show'
p101
asS'accepts_from'
p102
NsS'fallback_agent'
p103
NsS'contributes_to'
p104
Nsg15
I00
sS'languages'
p105
(lp106
S'xn'
p107
asS'persist_stored_files'
p108
I01
sS'version'
p109
I0
sS'primary_provider'
p110
I01
sS'prefs'
p111
I00
sS'name'
p112
S'Personal Media Shows'
p113
sa(dp114
S'media_types'
p115
(lp116
S'Artist'
p117
asS'accepts_from'
p118
NsS'fallback_agent'
p119
NsS'contributes_to'
p120
Nsg15
I00
sS'languages'
p121
(lp122
S'xn'
p123
asS'persist_stored_files'
p124
I01
sS'version'
p125
I0
sS'primary_provider'
p126
I01
sS'prefs'
p127
I00
sS'name'
p128
S'Personal Media Artists'
p129
sa(dp130
S'media_types'
p131
(lp132
S'Album'
p133
asS'accepts_from'
p134
NsS'fallback_agent'
p135
NsS'contributes_to'
p136
Nsg15
I00
sS'languages'
p137
(lp138
S'xn'
p139
asS'persist_stored_files'
p140
I01
sS'version'
p141
I0
sS'primary_provider'
p142
I01
sS'prefs'
p143
I00
sS'name'
p144
S'Personal Media Albums'
p145
sa(dp146
S'media_types'
p147
(lp148
S'Photo'
p149
asS'accepts_from'
p150
NsS'fallback_agent'
p151
NsS'contributes_to'
p152
Nsg15
I00
sS'languages'
p153
(lp154
S'en'
p155
aS'ar'
p156
aS'bg'
p157
aS'ca'
p158
aS'cs'
p159
aS'cy'
p160
aS'da'
p161
aS'de'
p162
aS'el'
p163
aS'es'
p164
aS'et'
p165
aS'fa'
p166
aS'fi'
p167
aS'fr'
p168
aS'he'
p169
aS'hi'
p170
aS'hr'
p171
aS'ht'
p172
aS'hu'
p173
aS'id'
p174
aS'it'
p175
aS'ja'
p176
aS'ko'
p177
aS'lt'
p178
aS'lv'
p179
aS'ms'
p180
aS'mt'
p181
aS'nl'
p182
aS'no'
p183
aS'pl'
p184
aS'pt'
p185
aS'ro'
p186
aS'ru'
p187
aS'sk'
p188
aS'sv'
p189
aS'sl'
p190
aS'sr'
p191
aS'th'
p192
aS'tr'
p193
aS'uk'
p194
aS'ur'
p195
aS'vi'
p196
aS'zh'
p197
aS'xn'
p198
asS'persist_stored_files'
p199
I01
sS'version'
p200
I0
sS'primary_provider'
p201
I01
sS'prefs'
p202
I00
sS'name'
p203
S'Photos'
p204
sasS'tv.plex.agents.music'
p205
(lp206
(dp207
S'media_types'
p208
(lp209
S'Artist'
p210
asS'accepts_from'
p211
NsS'fallback_agent'
p212
NsS'contributes_to'
p213
Nsg15
I01
sS'languages'
p214
(lp215
S'en'
p216
aS'ar'
p217
aS'bg'
p218
aS'zh'
p219
aS'hr'
p220
aS'cs'
p221
aS'da'
p222
aS'nl'
p223
aS'fi'
p224
aS'fr'
p225
aS'de'
p226
aS'el'
p227
aS'hu'
p228
aS'id'
p229
aS'it'
p230
aS'ja'
p231
aS'ko'
p232
aS'nn'
p233
aS'pl'
p234
aS'pt'
p235
aS'ro'
p236
aS'ru'
p237
aS'sr'
p238
aS'sk'
p239
aS'es'
p240
aS'sv'
p241
aS'th'
p242
aS'tr'
p243
aS'vi'
p244
aS'xx'
p245
asS'persist_stored_files'
p246
I01
sS'version'
p247
I0
sS'primary_provider'
p248
I01
sS'prefs'
p249
I01
sS'name'
p250
S'Plex Music'
p251
sa(dp252
S'media_types'
p253
(lp254
S'Album'
p255
asS'accepts_from'
p256
NsS'fallback_agent'
p257
NsS'contributes_to'
p258
Nsg15
I01
sS'languages'
p259
g215
sS'persist_stored_files'
p260
I01
sS'version'
p261
I0
sS'primary_provider'
p262
I01
sS'prefs'
p263
I01
sS'name'
p264
S'Plex Music'
p265
sasS'com.plexapp.agents.opensubtitles'
p266
(lp267
(dp268
S'media_types'
p269
(lp270
S'Movie'
p271
asS'accepts_from'
p272
NsS'fallback_agent'
p273
NsS'contributes_to'
p274
(lp275
S'com.plexapp.agents.imdb'
p276
asg15
I00
sS'languages'
p277
(lp278
S'xn'
p279
asS'persist_stored_files'
p280
I01
sS'version'
p281
I0
sS'primary_provider'
p282
I00
sS'prefs'
p283
I01
sS'name'
p284
S'OpenSubtitles.org'
p285
sa(dp286
S'media_types'
p287
(lp288
S'TV_Show'
p289
asS'accepts_from'
p290
NsS'fallback_agent'
p291
NsS'contributes_to'
p292
(lp293
S'com.plexapp.agents.thetvdb'
p294
asg15
I00
sS'languages'
p295
(lp296
S'xn'
p297
asS'persist_stored_files'
p298
I01
sS'version'
p299
I0
sS'primary_provider'
p300
I00
sS'prefs'
p301
I01
sS'name'
p302
S'OpenSubtitles.org'
p303
sasS'com.plexapp.agents.imdb'
p304
(lp305
(dp306
S'media_types'
p307
(lp308
S'Movie'
p309
asS'primary_provider'
p310
I01
sS'fallback_agent'
p311
NsS'contributes_to'
p312
(lp313
S'com.plexapp.agents.themoviedb'
p314
asS'has_attribution'
p315
I01
sS'languages'
p316
(lp317
S'en'
p318
aS'sv'
p319
aS'fr'
p320
aS'es'
p321
aS'nl'
p322
aS'de'
p323
aS'it'
p324
aS'da'
p325
aS'ar'
p326
aS'ca'
p327
aS'zh'
p328
aS'cs'
p329
aS'et'
p330
aS'fi'
p331
aS'el'
p332
aS'he'
p333
aS'hi'
p334
aS'hu'
p335
aS'id'
p336
aS'ja'
p337
aS'ko'
p338
aS'lv'
p339
aS'no'
p340
aS'fa'
p341
aS'pl'
p342
aS'pt'
p343
aS'ro'
p344
aS'ru'
p345
aS'sk'
p346
aS'th'
p347
aS'tr'
p348
aS'uk'
p349
aS'vi'
p350
asS'persist_stored_files'
p351
I01
sS'version'
p352
I0
sS'accepts_from'
p353
(lp354
S'com.plexapp.agents.localmedia'
p355
asS'prefs'
p356
I01
sS'name'
p357
S'Plex Movie'
p358
sasS'com.plexapp.agents.lyricfind'
p359
(lp360
(dp361
S'media_types'
p362
(lp363
S'Album'
p364
asS'accepts_from'
p365
NsS'fallback_agent'
p366
NsS'contributes_to'
p367
(lp368
S'com.plexapp.agents.lastfm'
p369
aS'tv.plex.agents.music'
p370
aS'org.musicbrainz.agents.music'
p371
asg15
I01
sS'languages'
p372
(lp373
S'xn'
p374
asS'persist_stored_files'
p375
I01
sS'version'
p376
I0
sS'primary_provider'
p377
I00
sS'prefs'
p378
I00
sS'name'
p379
S'LyricFind'
p380
sasS'com.plexapp.agents.thetvdb'
p381
(lp382
(dp383
S'media_types'
p384
(lp385
S'TV_Show'
p386
asS'accepts_from'
p387
NsS'fallback_agent'
p388
NsS'contributes_to'
p389
Nsg15
I01
sS'languages'
p390
(lp391
S'en'
p392
aS'fr'
p393
aS'zh'
p394
aS'sv'
p395
aS'no'
p396
aS'da'
p397
aS'fi'
p398
aS'nl'
p399
aS'de'
p400
aS'it'
p401
aS'es'
p402
aS'pl'
p403
aS'hu'
p404
aS'el'
p405
aS'tr'
p406
aS'ru'
p407
aS'he'
p408
aS'ja'
p409
aS'pt'
p410
aS'cs'
p411
aS'ko'
p412
aS'sl'
p413
aS'hr'
p414
asS'persist_stored_files'
p415
I01
sS'version'
p416
I0
sS'primary_provider'
p417
I01
sS'prefs'
p418
I01
sS'name'
p419
S'TheTVDB'
p420
sasS'tv.plex.agents.movie'
p421
(lp422
(dp423
S'media_types'
p424
(lp425
S'Movie'
p426
asS'accepts_from'
p427
NsS'fallback_agent'
p428
NsS'contributes_to'
p429
Nsg15
I01
sS'languages'
p430
(lp431
sS'persist_stored_files'
p432
I01
sS'version'
p433
I0
sS'primary_provider'
p434
I01
sS'prefs'
p435
I01
sS'name'
p436
S'Plex Movie'
p437
sasS'tv.plex.agents.series'
p438
(lp439
(dp440
S'media_types'
p441
(lp442
S'TV_Show'
p443
asS'accepts_from'
p444
NsS'fallback_agent'
p445
NsS'contributes_to'
p446
Nsg15
I01
sS'languages'
p447
(lp448
sS'persist_stored_files'
p449
I01
sS'version'
p450
I0
sS'primary_provider'
p451
I01
sS'prefs'
p452
I01
sS'name'
p453
S'Plex TV Series'
p454
sasS'com.plexapp.agents.plexthememusic'
p455
(lp456
(dp457
S'media_types'
p458
(lp459
S'TV_Show'
p460
asS'accepts_from'
p461
NsS'fallback_agent'
p462
NsS'contributes_to'
p463
(lp464
S'com.plexapp.agents.thetvdb'
p465
aS'com.plexapp.agents.thetvdbdvdorder'
p466
aS'com.plexapp.agents.themoviedb'
p467
asg15
I00
sS'languages'
p468
(lp469
S'xn'
p470
asS'persist_stored_files'
p471
I01
sS'version'
p472
I0
sS'primary_provider'
p473
I00
sS'prefs'
p474
I00
sS'name'
p475
S'Plex Theme Music'
p476
sasS'org.musicbrainz.agents.music'
p477
(lp478
(dp479
S'media_types'
p480
(lp481
S'Artist'
p482
asS'accepts_from'
p483
NsS'fallback_agent'
p484
NsS'contributes_to'
p485
Nsg15
I01
sS'languages'
p486
(lp487
S'en'
p488
aS'ar'
p489
aS'bg'
p490
aS'zh'
p491
aS'hr'
p492
aS'cs'
p493
aS'da'
p494
aS'nl'
p495
aS'fi'
p496
aS'fr'
p497
aS'de'
p498
aS'el'
p499
aS'hu'
p500
aS'id'
p501
aS'it'
p502
aS'ja'
p503
aS'ko'
p504
aS'nn'
p505
aS'pl'
p506
aS'pt'
p507
aS'ro'
p508
aS'ru'
p509
aS'sr'
p510
aS'sk'
p511
aS'es'
p512
aS'sv'
p513
aS'th'
p514
aS'tr'
p515
aS'vi'
p516
aS'xx'
p517
asS'persist_stored_files'
p518
I01
sS'version'
p519
I0
sS'primary_provider'
p520
I01
sS'prefs'
p521
I01
sS'name'
p522
S'Musicbrainz'
p523
sa(dp524
S'media_types'
p525
(lp526
S'Album'
p527
asS'accepts_from'
p528
NsS'fallback_agent'
p529
NsS'contributes_to'
p530
Nsg15
I01
sS'languages'
p531
g487
sS'persist_stored_files'
p532
I01
sS'version'
p533
I0
sS'primary_provider'
p534
I01
sS'prefs'
p535
I01
sS'name'
p536
S'Musicbrainz'
p537
sasS'com.plexapp.agents.themoviedb'
p538
(lp539
(dp540
S'media_types'
p541
(lp542
S'Movie'
p543
asS'accepts_from'
p544
(lp545
S'com.plexapp.agents.localmedia'
p546
asS'fallback_agent'
p547
NsS'contributes_to'
p548
Nsg15
I01
sS'languages'
p549
(lp550
S'en'
p551
aS'cs'
p552
aS'da'
p553
aS'de'
p554
aS'el'
p555
aS'es'
p556
aS'fi'
p557
aS'fr'
p558
aS'he'
p559
aS'hr'
p560
aS'hu'
p561
aS'it'
p562
aS'lv'
p563
aS'lt'
p564
aS'nl'
p565
aS'no'
p566
aS'pl'
p567
aS'pt'
p568
aS'ru'
p569
aS'sk'
p570
aS'sv'
p571
aS'th'
p572
aS'tr'
p573
aS'vi'
p574
aS'zh'
p575
aS'ko'
p576
asS'persist_stored_files'
p577
I01
sS'version'
p578
I0
sS'primary_provider'
p579
I01
sS'prefs'
p580
I01
sS'name'
p581
S'The Movie Database'
p582
sa(dp583
S'media_types'
p584
(lp585
S'TV_Show'
p586
asS'accepts_from'
p587
(lp588
S'com.plexapp.agents.localmedia'
p589
aS'com.plexapp.agents.thetvdb'
p590
asS'fallback_agent'
p591
NsS'contributes_to'
p592
(lp593
S'com.plexapp.agents.thetvdb'
p594
asg15
I01
sS'languages'
p595
g550
sS'persist_stored_files'
p596
I01
sS'version'
p597
I0
sS'primary_provider'
p598
I01
sS'prefs'
p599
I01
sS'name'
p600
S'The Movie Database'
p601
sasS'com.plexapp.agents.htbackdrops'
p602
(lp603
(dp604
S'media_types'
p605
(lp606
S'Artist'
p607
asS'accepts_from'
p608
NsS'fallback_agent'
p609
NsS'contributes_to'
p610
(lp611
S'com.plexapp.agents.lastfm'
p612
asg15
I01
sS'languages'
p613
(lp614
S'ab'
p615
aS'aa'
p616
aS'af'
p617
aS'ak'
p618
aS'sq'
p619
aS'am'
p620
aS'ar'
p621
aS'an'
p622
aS'hy'
p623
aS'as'
p624
aS'av'
p625
aS'ae'
p626
aS'ay'
p627
aS'az'
p628
aS'bm'
p629
aS'ba'
p630
aS'eu'
p631
aS'be'
p632
aS'bn'
p633
aS'bh'
p634
aS'bi'
p635
aS'bs'
p636
aS'pb'
p637
aS'br'
p638
aS'bg'
p639
aS'my'
p640
aS'ca'
p641
aS'ch'
p642
aS'ce'
p643
aS'ny'
p644
aS'zh'
p645
aS'cu'
p646
aS'cv'
p647
aS'kw'
p648
aS'co'
p649
aS'cr'
p650
aS'hr'
p651
aS'cs'
p652
aS'da'
p653
aS'dv'
p654
aS'nl'
p655
aS'dz'
p656
aS'en'
p657
aS'eo'
p658
aS'et'
p659
aS'ee'
p660
aS'fo'
p661
aS'fj'
p662
aS'fi'
p663
aS'fr'
p664
aS'fy'
p665
aS'ff'
p666
aS'gd'
p667
aS'gl'
p668
aS'lg'
p669
aS'ka'
p670
aS'de'
p671
aS'el'
p672
aS'gn'
p673
aS'gu'
p674
aS'ht'
p675
aS'ha'
p676
aS'he'
p677
aS'hz'
p678
aS'hi'
p679
aS'ho'
p680
aS'hu'
p681
aS'is'
p682
aS'io'
p683
aS'ig'
p684
aS'id'
p685
aS'ia'
p686
aS'ie'
p687
aS'iu'
p688
aS'ik'
p689
aS'ga'
p690
aS'it'
p691
aS'ja'
p692
aS'jv'
p693
aS'kl'
p694
aS'kn'
p695
aS'kr'
p696
aS'ks'
p697
aS'kk'
p698
aS'km'
p699
aS'ki'
p700
aS'rw'
p701
aS'ky'
p702
aS'kv'
p703
aS'kg'
p704
aS'ko'
p705
aS'kj'
p706
aS'ku'
p707
aS'lo'
p708
aS'la'
p709
aS'lv'
p710
aS'li'
p711
aS'ln'
p712
aS'lt'
p713
aS'lu'
p714
aS'lb'
p715
aS'mk'
p716
aS'mg'
p717
aS'ms'
p718
aS'ml'
p719
aS'mt'
p720
aS'gv'
p721
aS'mi'
p722
aS'mr'
p723
aS'mh'
p724
aS'mo'
p725
aS'mn'
p726
aS'na'
p727
aS'nv'
p728
aS'ng'
p729
aS'ne'
p730
aS'xn'
p731
aS'nd'
p732
aS'no'
p733
aS'nb'
p734
aS'nn'
p735
aS'oc'
p736
aS'oj'
p737
aS'or'
p738
aS'om'
p739
aS'os'
p740
aS'pi'
p741
aS'pa'
p742
aS'fa'
p743
aS'pl'
p744
aS'pt'
p745
aS'ps'
p746
aS'qu'
p747
aS'rm'
p748
aS'ro'
p749
aS'rn'
p750
aS'ru'
p751
aS'se'
p752
aS'sm'
p753
aS'sg'
p754
aS'sa'
p755
aS'sc'
p756
aS'sr'
p757
aS'sn'
p758
aS'ii'
p759
aS'sd'
p760
aS'si'
p761
aS'sk'
p762
aS'sl'
p763
aS'so'
p764
aS'st'
p765
aS'nr'
p766
aS'es'
p767
aS'su'
p768
aS'sw'
p769
aS'ss'
p770
aS'sv'
p771
aS'tl'
p772
aS'ty'
p773
aS'tg'
p774
aS'ta'
p775
aS'tt'
p776
aS'te'
p777
aS'th'
p778
aS'bo'
p779
aS'ti'
p780
aS'to'
p781
aS'ts'
p782
aS'tn'
p783
aS'tr'
p784
aS'tk'
p785
aS'tw'
p786
aS'ug'
p787
aS'uk'
p788
aS'ur'
p789
aS'uz'
p790
aS've'
p791
aS'vi'
p792
aS'vo'
p793
aS'wa'
p794
aS'cy'
p795
aS'wo'
p796
aS'xh'
p797
aS'yi'
p798
aS'yo'
p799
aS'za'
p800
aS'zu'
p801
asS'persist_stored_files'
p802
I01
sS'version'
p803
I0
sS'primary_provider'
p804
I00
sS'prefs'
p805
I00
sS'name'
p806
S'Home Theater Backdrops'
p807
sasS'com.plexapp.agents.movieposterdb'
p808
(lp809
(dp810
S'media_types'
p811
(lp812
S'Movie'
p813
asS'accepts_from'
p814
NsS'fallback_agent'
p815
NsS'contributes_to'
p816
(lp817
S'com.plexapp.agents.imdb'
p818
asg15
I01
sS'languages'
p819
(lp820
S'xn'
p821
asS'persist_stored_files'
p822
I01
sS'version'
p823
I0
sS'primary_provider'
p824
I00
sS'prefs'
p825
I00
sS'name'
p826
S'CineMaterial'
p827
sasS'com.plexapp.agents.localmedia'
p828
(lp829
(dp830
S'media_types'
p831
(lp832
S'Movie'
p833
asS'accepts_from'
p834
NsS'fallback_agent'
p835
NsS'contributes_to'
p836
(lp837
S'com.plexapp.agents.imdb'
p838
aS'com.plexapp.agents.none'
p839
asg15
I00
sS'languages'
p840
(lp841
S'xn'
p842
asS'persist_stored_files'
p843
I00
sS'version'
p844
I0
sS'primary_provider'
p845
I00
sS'prefs'
p846
I01
sS'name'
p847
S'Local Media Assets (Movies)'
p848
sa(dp849
S'media_types'
p850
(lp851
S'TV_Show'
p852
asS'accepts_from'
p853
NsS'fallback_agent'
p854
NsS'contributes_to'
p855
(lp856
S'com.plexapp.agents.thetvdb'
p857
aS'com.plexapp.agents.none'
p858
asg15
I00
sS'languages'
p859
(lp860
S'xn'
p861
asS'persist_stored_files'
p862
I00
sS'version'
p863
I0
sS'primary_provider'
p864
I00
sS'prefs'
p865
I01
sS'name'
p866
S'Local Media Assets (TV)'
p867
sa(dp868
S'media_types'
p869
(lp870
S'Artist'
p871
asS'accepts_from'
p872
NsS'fallback_agent'
p873
NsS'contributes_to'
p874
(lp875
S'com.plexapp.agents.discogs'
p876
aS'com.plexapp.agents.lastfm'
p877
aS'com.plexapp.agents.plexmusic'
p878
aS'com.plexapp.agents.none'
p879
aS'tv.plex.agents.music'
p880
aS'org.musicbrainz.agents.music'
p881
asg15
I00
sS'languages'
p882
(lp883
S'xn'
p884
asS'persist_stored_files'
p885
I00
sS'version'
p886
I0
sS'primary_provider'
p887
I00
sS'prefs'
p888
I01
sS'name'
p889
S'Local Media Assets (Artists)'
p890
sa(dp891
S'media_types'
p892
(lp893
S'Artist'
p894
asS'accepts_from'
p895
NsS'fallback_agent'
p896
NsS'contributes_to'
p897
(lp898
S'com.plexapp.agents.plexmusic'
p899
asg15
I00
sS'languages'
p900
g883
sS'persist_stored_files'
p901
I00
sS'version'
p902
I2
sS'primary_provider'
p903
I00
sS'prefs'
p904
I01
sS'name'
p905
S'Local Media Assets (Artists)'
p906
sa(dp907
S'media_types'
p908
(lp909
S'Album'
p910
asS'accepts_from'
p911
NsS'fallback_agent'
p912
NsS'contributes_to'
p913
(lp914
S'com.plexapp.agents.discogs'
p915
aS'com.plexapp.agents.lastfm'
p916
aS'com.plexapp.agents.plexmusic'
p917
aS'com.plexapp.agents.none'
p918
aS'tv.plex.agents.music'
p919
aS'org.musicbrainz.agents.music'
p920
asg15
I00
sS'languages'
p921
(lp922
S'xn'
p923
asS'persist_stored_files'
p924
I00
sS'version'
p925
I0
sS'primary_provider'
p926
I00
sS'prefs'
p927
I01
sS'name'
p928
S'Local Media Assets (Albums)'
p929
sasS'com.plexapp.agents.lastfm'
p930
(lp931
(dp932
S'media_types'
p933
(lp934
S'Artist'
p935
asS'accepts_from'
p936
NsS'fallback_agent'
p937
NsS'contributes_to'
p938
Nsg15
I01
sS'languages'
p939
(lp940
S'en'
p941
aS'sv'
p942
aS'fr'
p943
aS'es'
p944
aS'de'
p945
aS'pl'
p946
aS'it'
p947
aS'pt'
p948
aS'ja'
p949
aS'tr'
p950
aS'ru'
p951
aS'zh'
p952
asS'persist_stored_files'
p953
I01
sS'version'
p954
I0
sS'primary_provider'
p955
I01
sS'prefs'
p956
I01
sS'name'
p957
S'Last.fm'
p958
sa(dp959
S'media_types'
p960
(lp961
S'Album'
p962
asS'accepts_from'
p963
NsS'fallback_agent'
p964
NsS'contributes_to'
p965
Nsg15
I01
sS'languages'
p966
(lp967
S'en'
p968
aS'sv'
p969
aS'fr'
p970
aS'es'
p971
aS'de'
p972
aS'pl'
p973
aS'it'
p974
aS'pt'
p975
aS'ja'
p976
aS'tr'
p977
aS'ru'
p978
aS'zh'
p979
asS'persist_stored_files'
p980
I01
sS'version'
p981
I0
sS'primary_provider'
p982
I01
sS'prefs'
p983
I01
sS'name'
p984
S'Last.fm'
p985
sass.