(dp0
S'_AgentService:AgentInfo'
p1
(dp2
S'com.plexapp.agents.fanarttv'
p3
(lp4
(dp5
S'media_types'
p6
(lp7
S'Movie'
p8
asS'primary_provider'
p9
I00
sS'fallback_agent'
p10
NsS'contributes_to'
p11
(lp12
S'com.plexapp.agents.imdb'
p13
aS'com.plexapp.agents.themoviedb'
p14
asS'has_attribution'
p15
I01
sS'languages'
p16
(lp17
S'xn'
p18
asS'persist_stored_files'
p19
I01
sS'version'
p20
I0
sS'accepts_from'
p21
NsS'prefs'
p22
I01
sS'name'
p23
S'Fanart.tv'
p24
sa(dp25
S'media_types'
p26
(lp27
S'TV_Show'
p28
asS'primary_provider'
p29
I00
sS'fallback_agent'
p30
NsS'contributes_to'
p31
(lp32
S'com.plexapp.agents.thetvdb'
p33
aS'com.plexapp.agents.themoviedb'
p34
asg15
I01
sS'languages'
p35
(lp36
S'xn'
p37
asS'persist_stored_files'
p38
I01
sS'version'
p39
I0
sS'accepts_from'
p40
NsS'prefs'
p41
I01
sS'name'
p42
S'Fanart.tv'
p43
sa(dp44
S'media_types'
p45
(lp46
S'Artist'
p47
asS'primary_provider'
p48
I00
sS'fallback_agent'
p49
NsS'contributes_to'
p50
(lp51
S'com.plexapp.agents.lastfm'
p52
asg15
I01
sS'languages'
p53
(lp54
S'xn'
p55
asS'persist_stored_files'
p56
I01
sS'version'
p57
I0
sS'accepts_from'
p58
NsS'prefs'
p59
I01
sS'name'
p60
S'Fanart.tv'
p61
sa(dp62
S'media_types'
p63
(lp64
S'Album'
p65
asS'primary_provider'
p66
I00
sS'fallback_agent'
p67
NsS'contributes_to'
p68
(lp69
S'com.plexapp.agents.lastfm'
p70
asg15
I01
sS'languages'
p71
(lp72
S'xn'
p73
asS'persist_stored_files'
p74
I01
sS'version'
p75
I0
sS'accepts_from'
p76
NsS'prefs'
p77
I01
sS'name'
p78
S'Fanart.tv'
p79
sasS'com.plexapp.agents.none'
p80
(lp81
(dp82
S'media_types'
p83
(lp84
S'Movie'
p85
asS'primary_provider'
p86
I01
sS'fallback_agent'
p87
NsS'contributes_to'
p88
Nsg15
I00
sS'languages'
p89
(lp90
S'xn'
p91
asS'persist_stored_files'
p92
I01
sS'version'
p93
I0
sS'accepts_from'
p94
NsS'prefs'
p95
I00
sS'name'
p96
S'Personal Media'
p97
sa(dp98
S'media_types'
p99
(lp100
S'TV_Show'
p101
asS'primary_provider'
p102
I01
sS'fallback_agent'
p103
NsS'contributes_to'
p104
Nsg15
I00
sS'languages'
p105
(lp106
S'xn'
p107
asS'persist_stored_files'
p108
I01
sS'version'
p109
I0
sS'accepts_from'
p110
NsS'prefs'
p111
I00
sS'name'
p112
S'Personal Media Shows'
p113
sa(dp114
S'media_types'
p115
(lp116
S'Artist'
p117
asS'primary_provider'
p118
I01
sS'fallback_agent'
p119
NsS'contributes_to'
p120
Nsg15
I00
sS'languages'
p121
(lp122
S'xn'
p123
asS'persist_stored_files'
p124
I01
sS'version'
p125
I0
sS'accepts_from'
p126
NsS'prefs'
p127
I00
sS'name'
p128
S'Personal Media Artists'
p129
sa(dp130
S'media_types'
p131
(lp132
S'Album'
p133
asS'primary_provider'
p134
I01
sS'fallback_agent'
p135
NsS'contributes_to'
p136
Nsg15
I00
sS'languages'
p137
(lp138
S'xn'
p139
asS'persist_stored_files'
p140
I01
sS'version'
p141
I0
sS'accepts_from'
p142
NsS'prefs'
p143
I00
sS'name'
p144
S'Personal Media Albums'
p145
sa(dp146
S'media_types'
p147
(lp148
S'Photo'
p149
asS'primary_provider'
p150
I01
sS'fallback_agent'
p151
NsS'contributes_to'
p152
Nsg15
I00
sS'languages'
p153
(lp154
S'en'
p155
aS'ar'
p156
aS'bg'
p157
aS'ca'
p158
aS'cs'
p159
aS'cy'
p160
aS'da'
p161
aS'de'
p162
aS'el'
p163
aS'es'
p164
aS'et'
p165
aS'fa'
p166
aS'fi'
p167
aS'fr'
p168
aS'he'
p169
aS'hi'
p170
aS'hr'
p171
aS'ht'
p172
aS'hu'
p173
aS'id'
p174
aS'it'
p175
aS'ja'
p176
aS'ko'
p177
aS'lt'
p178
aS'lv'
p179
aS'ms'
p180
aS'mt'
p181
aS'nl'
p182
aS'no'
p183
aS'pl'
p184
aS'pt'
p185
aS'ro'
p186
aS'ru'
p187
aS'sk'
p188
aS'sv'
p189
aS'sl'
p190
aS'sr'
p191
aS'th'
p192
aS'tr'
p193
aS'uk'
p194
aS'ur'
p195
aS'vi'
p196
aS'zh'
p197
aS'xn'
p198
asS'persist_stored_files'
p199
I01
sS'version'
p200
I0
sS'accepts_from'
p201
NsS'prefs'
p202
I00
sS'name'
p203
S'Photos'
p204
sasS'tv.plex.agents.music'
p205
(lp206
(dp207
S'media_types'
p208
(lp209
S'Artist'
p210
asS'primary_provider'
p211
I01
sS'fallback_agent'
p212
NsS'contributes_to'
p213
Nsg15
I01
sS'languages'
p214
(lp215
S'en'
p216
aS'ar'
p217
aS'bg'
p218
aS'zh'
p219
aS'hr'
p220
aS'cs'
p221
aS'da'
p222
aS'nl'
p223
aS'fi'
p224
aS'fr'
p225
aS'de'
p226
aS'el'
p227
aS'hu'
p228
aS'id'
p229
aS'it'
p230
aS'ja'
p231
aS'ko'
p232
aS'nn'
p233
aS'pl'
p234
aS'pt'
p235
aS'ro'
p236
aS'ru'
p237
aS'sr'
p238
aS'sk'
p239
aS'es'
p240
aS'sv'
p241
aS'th'
p242
aS'tr'
p243
aS'vi'
p244
aS'xx'
p245
asS'persist_stored_files'
p246
I01
sS'version'
p247
I0
sS'accepts_from'
p248
NsS'prefs'
p249
I01
sS'name'
p250
S'Plex Music'
p251
sa(dp252
S'media_types'
p253
(lp254
S'Album'
p255
asS'primary_provider'
p256
I01
sS'fallback_agent'
p257
NsS'contributes_to'
p258
Nsg15
I01
sS'languages'
p259
g215
sS'persist_stored_files'
p260
I01
sS'version'
p261
I0
sS'accepts_from'
p262
NsS'prefs'
p263
I01
sS'name'
p264
S'Plex Music'
p265
sasS'com.plexapp.agents.opensubtitles'
p266
(lp267
(dp268
S'media_types'
p269
(lp270
S'Movie'
p271
asS'primary_provider'
p272
I00
sS'fallback_agent'
p273
NsS'contributes_to'
p274
(lp275
S'com.plexapp.agents.imdb'
p276
asg15
I00
sS'languages'
p277
(lp278
S'xn'
p279
asS'persist_stored_files'
p280
I01
sS'version'
p281
I0
sS'accepts_from'
p282
NsS'prefs'
p283
I01
sS'name'
p284
S'OpenSubtitles.org'
p285
sa(dp286
S'media_types'
p287
(lp288
S'TV_Show'
p289
asS'primary_provider'
p290
I00
sS'fallback_agent'
p291
NsS'contributes_to'
p292
(lp293
S'com.plexapp.agents.thetvdb'
p294
asg15
I00
sS'languages'
p295
(lp296
S'xn'
p297
asS'persist_stored_files'
p298
I01
sS'version'
p299
I0
sS'accepts_from'
p300
NsS'prefs'
p301
I01
sS'name'
p302
S'OpenSubtitles.org'
p303
sasS'com.plexapp.agents.imdb'
p304
(lp305
(dp306
S'media_types'
p307
(lp308
S'Movie'
p309
asS'primary_provider'
p310
I01
sS'fallback_agent'
p311
NsS'contributes_to'
p312
(lp313
S'com.plexapp.agents.themoviedb'
p314
asS'has_attribution'
p315
I01
sS'languages'
p316
(lp317
S'en'
p318
aS'sv'
p319
aS'fr'
p320
aS'es'
p321
aS'nl'
p322
aS'de'
p323
aS'it'
p324
aS'da'
p325
aS'ar'
p326
aS'ca'
p327
aS'zh'
p328
aS'cs'
p329
aS'et'
p330
aS'fi'
p331
aS'el'
p332
aS'he'
p333
aS'hi'
p334
aS'hu'
p335
aS'id'
p336
aS'ja'
p337
aS'ko'
p338
aS'lv'
p339
aS'no'
p340
aS'fa'
p341
aS'pl'
p342
aS'pt'
p343
aS'ro'
p344
aS'ru'
p345
aS'sk'
p346
aS'th'
p347
aS'tr'
p348
aS'uk'
p349
aS'vi'
p350
asS'persist_stored_files'
p351
I01
sS'version'
p352
I0
sS'accepts_from'
p353
(lp354
S'com.plexapp.agents.localmedia'
p355
asS'prefs'
p356
I01
sS'name'
p357
S'Plex Movie'
p358
sasS'com.plexapp.agents.lyricfind'
p359
(lp360
(dp361
S'media_types'
p362
(lp363
S'Album'
p364
asS'primary_provider'
p365
I00
sS'fallback_agent'
p366
NsS'contributes_to'
p367
(lp368
S'com.plexapp.agents.lastfm'
p369
aS'tv.plex.agents.music'
p370
aS'org.musicbrainz.agents.music'
p371
asg15
I01
sS'languages'
p372
(lp373
S'xn'
p374
asS'persist_stored_files'
p375
I01
sS'version'
p376
I0
sS'accepts_from'
p377
NsS'prefs'
p378
I00
sS'name'
p379
S'LyricFind'
p380
sasS'com.plexapp.agents.thetvdb'
p381
(lp382
(dp383
S'media_types'
p384
(lp385
S'TV_Show'
p386
asS'primary_provider'
p387
I01
sS'fallback_agent'
p388
NsS'contributes_to'
p389
Nsg15
I01
sS'languages'
p390
(lp391
S'en'
p392
aS'fr'
p393
aS'zh'
p394
aS'sv'
p395
aS'no'
p396
aS'da'
p397
aS'fi'
p398
aS'nl'
p399
aS'de'
p400
aS'it'
p401
aS'es'
p402
aS'pl'
p403
aS'hu'
p404
aS'el'
p405
aS'tr'
p406
aS'ru'
p407
aS'he'
p408
aS'ja'
p409
aS'pt'
p410
aS'cs'
p411
aS'ko'
p412
aS'sl'
p413
aS'hr'
p414
asS'persist_stored_files'
p415
I01
sS'version'
p416
I0
sS'accepts_from'
p417
NsS'prefs'
p418
I01
sS'name'
p419
S'TheTVDB'
p420
sasS'tv.plex.agents.movie'
p421
(lp422
(dp423
S'media_types'
p424
(lp425
S'Movie'
p426
asS'primary_provider'
p427
I01
sS'fallback_agent'
p428
NsS'contributes_to'
p429
Nsg15
I01
sS'languages'
p430
(lp431
sS'persist_stored_files'
p432
I01
sS'version'
p433
I0
sS'accepts_from'
p434
NsS'prefs'
p435
I01
sS'name'
p436
S'Plex Movie'
p437
sasS'tv.plex.agents.series'
p438
(lp439
(dp440
S'media_types'
p441
(lp442
S'TV_Show'
p443
asS'primary_provider'
p444
I01
sS'fallback_agent'
p445
NsS'contributes_to'
p446
Nsg15
I01
sS'languages'
p447
(lp448
sS'persist_stored_files'
p449
I01
sS'version'
p450
I0
sS'accepts_from'
p451
NsS'prefs'
p452
I01
sS'name'
p453
S'Plex TV Series'
p454
sasS'com.plexapp.agents.plexthememusic'
p455
(lp456
(dp457
S'media_types'
p458
(lp459
S'TV_Show'
p460
asS'primary_provider'
p461
I00
sS'fallback_agent'
p462
NsS'contributes_to'
p463
(lp464
S'com.plexapp.agents.thetvdb'
p465
aS'com.plexapp.agents.thetvdbdvdorder'
p466
aS'com.plexapp.agents.themoviedb'
p467
asg15
I00
sS'languages'
p468
(lp469
S'xn'
p470
asS'persist_stored_files'
p471
I01
sS'version'
p472
I0
sS'accepts_from'
p473
NsS'prefs'
p474
I00
sS'name'
p475
S'Plex Theme Music'
p476
sasS'org.musicbrainz.agents.music'
p477
(lp478
(dp479
S'media_types'
p480
(lp481
S'Artist'
p482
asS'primary_provider'
p483
I01
sS'fallback_agent'
p484
NsS'contributes_to'
p485
Nsg15
I01
sS'languages'
p486
(lp487
S'en'
p488
aS'ar'
p489
aS'bg'
p490
aS'zh'
p491
aS'hr'
p492
aS'cs'
p493
aS'da'
p494
aS'nl'
p495
aS'fi'
p496
aS'fr'
p497
aS'de'
p498
aS'el'
p499
aS'hu'
p500
aS'id'
p501
aS'it'
p502
aS'ja'
p503
aS'ko'
p504
aS'nn'
p505
aS'pl'
p506
aS'pt'
p507
aS'ro'
p508
aS'ru'
p509
aS'sr'
p510
aS'sk'
p511
aS'es'
p512
aS'sv'
p513
aS'th'
p514
aS'tr'
p515
aS'vi'
p516
aS'xx'
p517
asS'persist_stored_files'
p518
I01
sS'version'
p519
I0
sS'accepts_from'
p520
NsS'prefs'
p521
I01
sS'name'
p522
S'Musicbrainz'
p523
sa(dp524
S'media_types'
p525
(lp526
S'Album'
p527
asS'primary_provider'
p528
I01
sS'fallback_agent'
p529
NsS'contributes_to'
p530
Nsg15
I01
sS'languages'
p531
g487
sS'persist_stored_files'
p532
I01
sS'version'
p533
I0
sS'accepts_from'
p534
NsS'prefs'
p535
I01
sS'name'
p536
S'Musicbrainz'
p537
sasS'com.plexapp.agents.themoviedb'
p538
(lp539
(dp540
S'media_types'
p541
(lp542
S'Movie'
p543
asS'primary_provider'
p544
I01
sS'fallback_agent'
p545
NsS'contributes_to'
p546
Nsg15
I01
sS'languages'
p547
(lp548
S'en'
p549
aS'cs'
p550
aS'da'
p551
aS'de'
p552
aS'el'
p553
aS'es'
p554
aS'fi'
p555
aS'fr'
p556
aS'he'
p557
aS'hr'
p558
aS'hu'
p559
aS'it'
p560
aS'lv'
p561
aS'lt'
p562
aS'nl'
p563
aS'no'
p564
aS'pl'
p565
aS'pt'
p566
aS'ru'
p567
aS'sk'
p568
aS'sv'
p569
aS'th'
p570
aS'tr'
p571
aS'vi'
p572
aS'zh'
p573
aS'ko'
p574
asS'persist_stored_files'
p575
I01
sS'version'
p576
I0
sS'accepts_from'
p577
(lp578
S'com.plexapp.agents.localmedia'
p579
asS'prefs'
p580
I01
sS'name'
p581
S'The Movie Database'
p582
sa(dp583
S'media_types'
p584
(lp585
S'TV_Show'
p586
asS'primary_provider'
p587
I01
sS'fallback_agent'
p588
NsS'contributes_to'
p589
(lp590
S'com.plexapp.agents.thetvdb'
p591
asg15
I01
sS'languages'
p592
g548
sS'persist_stored_files'
p593
I01
sS'version'
p594
I0
sS'accepts_from'
p595
(lp596
S'com.plexapp.agents.localmedia'
p597
aS'com.plexapp.agents.thetvdb'
p598
asS'prefs'
p599
I01
sS'name'
p600
S'The Movie Database'
p601
sasS'com.plexapp.agents.localmedia'
p602
(lp603
(dp604
S'media_types'
p605
(lp606
S'Movie'
p607
asS'primary_provider'
p608
I00
sS'fallback_agent'
p609
NsS'contributes_to'
p610
(lp611
S'com.plexapp.agents.imdb'
p612
aS'com.plexapp.agents.none'
p613
asg15
I00
sS'languages'
p614
(lp615
S'xn'
p616
asS'persist_stored_files'
p617
I00
sS'version'
p618
I0
sS'accepts_from'
p619
NsS'prefs'
p620
I01
sS'name'
p621
S'Local Media Assets (Movies)'
p622
sa(dp623
S'media_types'
p624
(lp625
S'TV_Show'
p626
asS'primary_provider'
p627
I00
sS'fallback_agent'
p628
NsS'contributes_to'
p629
(lp630
S'com.plexapp.agents.thetvdb'
p631
aS'com.plexapp.agents.none'
p632
asg15
I00
sS'languages'
p633
(lp634
S'xn'
p635
asS'persist_stored_files'
p636
I00
sS'version'
p637
I0
sS'accepts_from'
p638
NsS'prefs'
p639
I01
sS'name'
p640
S'Local Media Assets (TV)'
p641
sa(dp642
S'media_types'
p643
(lp644
S'Artist'
p645
asS'primary_provider'
p646
I00
sS'fallback_agent'
p647
NsS'contributes_to'
p648
(lp649
S'com.plexapp.agents.discogs'
p650
aS'com.plexapp.agents.lastfm'
p651
aS'com.plexapp.agents.plexmusic'
p652
aS'com.plexapp.agents.none'
p653
aS'tv.plex.agents.music'
p654
aS'org.musicbrainz.agents.music'
p655
asg15
I00
sS'languages'
p656
(lp657
S'xn'
p658
asS'persist_stored_files'
p659
I00
sS'version'
p660
I0
sS'accepts_from'
p661
NsS'prefs'
p662
I01
sS'name'
p663
S'Local Media Assets (Artists)'
p664
sa(dp665
S'media_types'
p666
(lp667
S'Artist'
p668
asS'primary_provider'
p669
I00
sS'fallback_agent'
p670
NsS'contributes_to'
p671
(lp672
S'com.plexapp.agents.plexmusic'
p673
asg15
I00
sS'languages'
p674
g657
sS'persist_stored_files'
p675
I00
sS'version'
p676
I2
sS'accepts_from'
p677
NsS'prefs'
p678
I01
sS'name'
p679
S'Local Media Assets (Artists)'
p680
sa(dp681
S'media_types'
p682
(lp683
S'Album'
p684
asS'primary_provider'
p685
I00
sS'fallback_agent'
p686
NsS'contributes_to'
p687
(lp688
S'com.plexapp.agents.discogs'
p689
aS'com.plexapp.agents.lastfm'
p690
aS'com.plexapp.agents.plexmusic'
p691
aS'com.plexapp.agents.none'
p692
aS'tv.plex.agents.music'
p693
aS'org.musicbrainz.agents.music'
p694
asg15
I00
sS'languages'
p695
(lp696
S'xn'
p697
asS'persist_stored_files'
p698
I00
sS'version'
p699
I0
sS'accepts_from'
p700
NsS'prefs'
p701
I01
sS'name'
p702
S'Local Media Assets (Albums)'
p703
sasS'com.plexapp.agents.movieposterdb'
p704
(lp705
(dp706
S'media_types'
p707
(lp708
S'Movie'
p709
asS'primary_provider'
p710
I00
sS'fallback_agent'
p711
NsS'contributes_to'
p712
(lp713
S'com.plexapp.agents.imdb'
p714
asg15
I01
sS'languages'
p715
(lp716
S'xn'
p717
asS'persist_stored_files'
p718
I01
sS'version'
p719
I0
sS'accepts_from'
p720
NsS'prefs'
p721
I00
sS'name'
p722
S'CineMaterial'
p723
sasS'com.plexapp.agents.htbackdrops'
p724
(lp725
(dp726
S'media_types'
p727
(lp728
S'Artist'
p729
asS'primary_provider'
p730
I00
sS'fallback_agent'
p731
NsS'contributes_to'
p732
(lp733
S'com.plexapp.agents.lastfm'
p734
asg15
I01
sS'languages'
p735
(lp736
S'ab'
p737
aS'aa'
p738
aS'af'
p739
aS'ak'
p740
aS'sq'
p741
aS'am'
p742
aS'ar'
p743
aS'an'
p744
aS'hy'
p745
aS'as'
p746
aS'av'
p747
aS'ae'
p748
aS'ay'
p749
aS'az'
p750
aS'bm'
p751
aS'ba'
p752
aS'eu'
p753
aS'be'
p754
aS'bn'
p755
aS'bh'
p756
aS'bi'
p757
aS'bs'
p758
aS'pb'
p759
aS'br'
p760
aS'bg'
p761
aS'my'
p762
aS'ca'
p763
aS'ch'
p764
aS'ce'
p765
aS'ny'
p766
aS'zh'
p767
aS'cu'
p768
aS'cv'
p769
aS'kw'
p770
aS'co'
p771
aS'cr'
p772
aS'hr'
p773
aS'cs'
p774
aS'da'
p775
aS'dv'
p776
aS'nl'
p777
aS'dz'
p778
aS'en'
p779
aS'eo'
p780
aS'et'
p781
aS'ee'
p782
aS'fo'
p783
aS'fj'
p784
aS'fi'
p785
aS'fr'
p786
aS'fy'
p787
aS'ff'
p788
aS'gd'
p789
aS'gl'
p790
aS'lg'
p791
aS'ka'
p792
aS'de'
p793
aS'el'
p794
aS'gn'
p795
aS'gu'
p796
aS'ht'
p797
aS'ha'
p798
aS'he'
p799
aS'hz'
p800
aS'hi'
p801
aS'ho'
p802
aS'hu'
p803
aS'is'
p804
aS'io'
p805
aS'ig'
p806
aS'id'
p807
aS'ia'
p808
aS'ie'
p809
aS'iu'
p810
aS'ik'
p811
aS'ga'
p812
aS'it'
p813
aS'ja'
p814
aS'jv'
p815
aS'kl'
p816
aS'kn'
p817
aS'kr'
p818
aS'ks'
p819
aS'kk'
p820
aS'km'
p821
aS'ki'
p822
aS'rw'
p823
aS'ky'
p824
aS'kv'
p825
aS'kg'
p826
aS'ko'
p827
aS'kj'
p828
aS'ku'
p829
aS'lo'
p830
aS'la'
p831
aS'lv'
p832
aS'li'
p833
aS'ln'
p834
aS'lt'
p835
aS'lu'
p836
aS'lb'
p837
aS'mk'
p838
aS'mg'
p839
aS'ms'
p840
aS'ml'
p841
aS'mt'
p842
aS'gv'
p843
aS'mi'
p844
aS'mr'
p845
aS'mh'
p846
aS'mo'
p847
aS'mn'
p848
aS'na'
p849
aS'nv'
p850
aS'ng'
p851
aS'ne'
p852
aS'xn'
p853
aS'nd'
p854
aS'no'
p855
aS'nb'
p856
aS'nn'
p857
aS'oc'
p858
aS'oj'
p859
aS'or'
p860
aS'om'
p861
aS'os'
p862
aS'pi'
p863
aS'pa'
p864
aS'fa'
p865
aS'pl'
p866
aS'pt'
p867
aS'ps'
p868
aS'qu'
p869
aS'rm'
p870
aS'ro'
p871
aS'rn'
p872
aS'ru'
p873
aS'se'
p874
aS'sm'
p875
aS'sg'
p876
aS'sa'
p877
aS'sc'
p878
aS'sr'
p879
aS'sn'
p880
aS'ii'
p881
aS'sd'
p882
aS'si'
p883
aS'sk'
p884
aS'sl'
p885
aS'so'
p886
aS'st'
p887
aS'nr'
p888
aS'es'
p889
aS'su'
p890
aS'sw'
p891
aS'ss'
p892
aS'sv'
p893
aS'tl'
p894
aS'ty'
p895
aS'tg'
p896
aS'ta'
p897
aS'tt'
p898
aS'te'
p899
aS'th'
p900
aS'bo'
p901
aS'ti'
p902
aS'to'
p903
aS'ts'
p904
aS'tn'
p905
aS'tr'
p906
aS'tk'
p907
aS'tw'
p908
aS'ug'
p909
aS'uk'
p910
aS'ur'
p911
aS'uz'
p912
aS've'
p913
aS'vi'
p914
aS'vo'
p915
aS'wa'
p916
aS'cy'
p917
aS'wo'
p918
aS'xh'
p919
aS'yi'
p920
aS'yo'
p921
aS'za'
p922
aS'zu'
p923
asS'persist_stored_files'
p924
I01
sS'version'
p925
I0
sS'accepts_from'
p926
NsS'prefs'
p927
I00
sS'name'
p928
S'Home Theater Backdrops'
p929
sasS'com.plexapp.agents.lastfm'
p930
(lp931
(dp932
S'media_types'
p933
(lp934
S'Artist'
p935
asS'primary_provider'
p936
I01
sS'fallback_agent'
p937
NsS'contributes_to'
p938
Nsg15
I01
sS'languages'
p939
(lp940
S'en'
p941
aS'sv'
p942
aS'fr'
p943
aS'es'
p944
aS'de'
p945
aS'pl'
p946
aS'it'
p947
aS'pt'
p948
aS'ja'
p949
aS'tr'
p950
aS'ru'
p951
aS'zh'
p952
asS'persist_stored_files'
p953
I01
sS'version'
p954
I0
sS'accepts_from'
p955
NsS'prefs'
p956
I01
sS'name'
p957
S'Last.fm'
p958
sa(dp959
S'media_types'
p960
(lp961
S'Album'
p962
asS'primary_provider'
p963
I01
sS'fallback_agent'
p964
NsS'contributes_to'
p965
Nsg15
I01
sS'languages'
p966
(lp967
S'en'
p968
aS'sv'
p969
aS'fr'
p970
aS'es'
p971
aS'de'
p972
aS'pl'
p973
aS'it'
p974
aS'pt'
p975
aS'ja'
p976
aS'tr'
p977
aS'ru'
p978
aS'zh'
p979
asS'persist_stored_files'
p980
I01
sS'version'
p981
I0
sS'accepts_from'
p982
NsS'prefs'
p983
I01
sS'name'
p984
S'Last.fm'
p985
sass.